target datalayout = "e-m:e-p270:32:32-p271:32:32-p272:64:64-i64:64-i128:128-f80:128-n8:16:32:64-S128"
target triple = "x86_64-pc-linux-gnu"

; Function Attrs: nounwind uwtable
define hidden i32 @uv__nonblock_fcntl(i32 noundef %0, i32 noundef %1) #0 {
  %3 = alloca i32, align 4
  %4 = alloca i32, align 4
  %5 = alloca i32, align 4
  %6 = alloca i32, align 4
  %7 = alloca i32, align 4
  %8 = alloca i32, align 4
  store i32 %0, ptr %4, align 4
  store i32 %1, ptr %5, align 4
  call void @llvm.lifetime.start.p0(i64 4, ptr %6) #11
  call void @llvm.lifetime.start.p0(i64 4, ptr %7) #11
  br label %9

9:                                                ; preds = %19, %2
  %10 = load i32, ptr %4, align 4
  %11 = call i32 (i32, i32, ...) @fcntl64(i32 noundef %10, i32 noundef 3)
  store i32 %11, ptr %7, align 4
  br label %12

12:                                               ; preds = %9
  %13 = load i32, ptr %7, align 4
  %14 = icmp eq i32 %13, -1
  br i1 %14, label %15, label %19

15:                                               ; preds = %12
  %16 = call ptr @__errno_location() #12
  %17 = load i32, ptr %16, align 4
  %18 = icmp eq i32 %17, 4
  br label %19

19:                                               ; preds = %15, %12
  %20 = phi i1 [ false, %12 ], [ %18, %15 ]
  br i1 %20, label %9, label %21

21:                                               ; preds = %19
  %22 = load i32, ptr %7, align 4
  %23 = icmp eq i32 %22, -1
  br i1 %23, label %24, label %28

24:                                               ; preds = %21
  %25 = call ptr @__errno_location() #12
  %26 = load i32, ptr %25, align 4
  %27 = sub nsw i32 0, %26
  store i32 %27, ptr %3, align 4
  store i32 1, ptr %8, align 4
  br label %73

28:                                               ; preds = %21
  %29 = load i32, ptr %7, align 4
  %30 = and i32 %29, 2048
  %31 = icmp ne i32 %30, 0
  %32 = xor i1 %31, true
  %33 = xor i1 %32, true
  %34 = zext i1 %33 to i32
  %35 = load i32, ptr %5, align 4
  %36 = icmp ne i32 %35, 0
  %37 = xor i1 %36, true
  %38 = xor i1 %37, true
  %39 = zext i1 %38 to i32
  %40 = icmp eq i32 %34, %39
  br i1 %40, label %41, label %42

41:                                               ; preds = %28
  store i32 0, ptr %3, align 4
  store i32 1, ptr %8, align 4
  br label %73

42:                                               ; preds = %28
  %43 = load i32, ptr %5, align 4
  %44 = icmp ne i32 %43, 0
  br i1 %44, label %45, label %48

45:                                               ; preds = %42
  %46 = load i32, ptr %7, align 4
  %47 = or i32 %46, 2048
  store i32 %47, ptr %6, align 4
  br label %51

48:                                               ; preds = %42
  %49 = load i32, ptr %7, align 4
  %50 = and i32 %49, -2049
  store i32 %50, ptr %6, align 4
  br label %51

51:                                               ; preds = %48, %45
  br label %52

52:                                               ; preds = %63, %51
  %53 = load i32, ptr %4, align 4
  %54 = load i32, ptr %6, align 4
  %55 = call i32 (i32, i32, ...) @fcntl64(i32 noundef %53, i32 noundef 4, i32 noundef %54)
  store i32 %55, ptr %7, align 4
  br label %56

56:                                               ; preds = %52
  %57 = load i32, ptr %7, align 4
  %58 = icmp eq i32 %57, -1
  br i1 %58, label %59, label %63

59:                                               ; preds = %56
  %60 = call ptr @__errno_location() #12
  %61 = load i32, ptr %60, align 4
  %62 = icmp eq i32 %61, 4
  br label %63

63:                                               ; preds = %59, %56
  %64 = phi i1 [ false, %56 ], [ %62, %59 ]
  br i1 %64, label %52, label %65

65:                                               ; preds = %63
  %66 = load i32, ptr %7, align 4
  %67 = icmp ne i32 %66, 0
  br i1 %67, label %68, label %72

68:                                               ; preds = %65
  %69 = call ptr @__errno_location() #12
  %70 = load i32, ptr %69, align 4
  %71 = sub nsw i32 0, %70
  store i32 %71, ptr %3, align 4
  store i32 1, ptr %8, align 4
  br label %73

72:                                               ; preds = %65
  store i32 0, ptr %3, align 4
  store i32 1, ptr %8, align 4
  br label %73

73:                                               ; preds = %72, %68, %41, %24
  call void @llvm.lifetime.end.p0(i64 4, ptr %7) #11
  call void @llvm.lifetime.end.p0(i64 4, ptr %6) #11
  %74 = load i32, ptr %3, align 4
  ret i32 %74
}