; Function Attrs: nounwind uwtable
define hidden range(i32 -2147483647, -2147483648) i32 @uv__nonblock_fcntl(i32 noundef %0, i32 noundef %1) local_unnamed_addr #0 {
  br label %3

3:                                                ; preds = %6, %2
  %4 = tail call i32 (i32, i32, ...) @fcntl64(i32 noundef %0, i32 noundef 3) #23
  %5 = icmp eq i32 %4, -1
  br i1 %5, label %6, label %.critedge17

6:                                                ; preds = %3
  %7 = tail call ptr @__errno_location() #24
  %8 = load i32, ptr %7, align 4
  %9 = icmp eq i32 %8, 4
  br i1 %9, label %3, label %.critedge

.critedge:                                        ; preds = %6
  %10 = sub nsw i32 0, %8
  br label %.loopexit

.critedge17:                                      ; preds = %3
  %11 = icmp ne i32 %1, 0
  %12 = and i32 %4, 2048
  %13 = icmp eq i32 %12, 0
  %14 = xor i1 %11, %13
  br i1 %14, label %.loopexit, label %15

15:                                               ; preds = %.critedge17
  %16 = and i32 %4, -2049
  %masksel = select i1 %11, i32 2048, i32 0
  %.0 = or disjoint i32 %16, %masksel
  br label %17

17:                                               ; preds = %19, %15
  %18 = tail call i32 (i32, i32, ...) @fcntl64(i32 noundef %0, i32 noundef 4, i32 noundef %.0) #23
  switch i32 %18, label %..critedge2_crit_edge [
    i32 -1, label %19
    i32 0, label %.loopexit
  ]

..critedge2_crit_edge:                            ; preds = %17
  %.pre = tail call ptr @__errno_location() #24
  br label %.critedge2

19:                                               ; preds = %17
  %20 = tail call ptr @__errno_location() #24
  %21 = load i32, ptr %20, align 4
  %22 = icmp eq i32 %21, 4
  br i1 %22, label %17, label %.critedge2

.critedge2:                                       ; preds = %19, %..critedge2_crit_edge
  %.pre-phi = phi ptr [ %.pre, %..critedge2_crit_edge ], [ %20, %19 ]
  %23 = load i32, ptr %.pre-phi, align 4
  %24 = sub nsw i32 0, %23
  br label %.loopexit

.loopexit:                                        ; preds = %17, %.critedge17, %.critedge2, %.critedge
  %.015 = phi i32 [ %10, %.critedge ], [ %24, %.critedge2 ], [ 0, %.critedge17 ], [ %18, %17 ]
  ret i32 %.015
}